; Function Attrs: mustprogress nofree nounwind memory(read, argmem: readwrite, inaccessiblemem: none) uwtable
define noundef i32 @_ZN12duckdb_miniz25mz_zip_reader_locate_fileEPNS_14mz_zip_archiveEPKcS3_j(ptr noundef captures(address_is_null) %0, ptr noundef captures(address_is_null) %1, ptr noundef captures(address_is_null) %2, i32 noundef %3) local_unnamed_addr #17 {
  %5 = alloca i32, align 4
  call void @llvm.lifetime.start.p0(i64 4, ptr nonnull %5) #25
  %6 = call noundef i32 @_ZN12duckdb_miniz28mz_zip_reader_locate_file_v2EPNS_14mz_zip_archiveEPKcS3_jPj(ptr noundef %0, ptr noundef %1, ptr noundef %2, i32 noundef %3, ptr noundef nonnull %5)
  %.not = icmp eq i32 %6, 0
  %7 = load i32, ptr %5, align 4
  %.0 = select i1 %.not, i32 -1, i32 %7
  call void @llvm.lifetime.end.p0(i64 4, ptr nonnull %5) #25
  ret i32 %.0
}